target datalayout = "e-m:e-p270:32:32-p271:32:32-p272:64:64-i64:64-i128:128-f80:128-n8:16:32:64-S128"
target triple = "x86_64-pc-linux-gnu"

%struct._php_basic_globals = type { ptr, %struct._zend_array, ptr, ptr, i8, ptr, [256 x i8], i64, %struct._zend_fcall_info, %struct._zend_fcall_info_cache, ptr, %struct._zval_struct, %struct._zval_struct, i64, i64, i64, i64, ptr, ptr, %struct._php_stream_statbuf, %struct._php_stream_statbuf, ptr, i32, %struct.anon.7, %struct.anon.8, %struct.url_adapt_state_ex_t, %struct._zend_array, %struct.url_adapt_state_ex_t, %struct._zend_array, ptr, i32, i64 }
%struct._zend_fcall_info = type { i64, %struct._zval_struct, ptr, ptr, ptr, i32, ptr }
%struct._zend_fcall_info_cache = type { ptr, ptr, ptr, ptr, ptr }
%struct._zval_struct = type { %union._zend_value, %union.anon.3, %union.anon.6 }
%union._zend_value = type { i64 }
%union.anon.3 = type { i32 }
%union.anon.6 = type { i32 }
%struct._php_stream_statbuf = type { %struct.stat }
%struct.stat = type { i64, i64, i64, i32, i32, i32, i32, i64, i64, i64, i64, %struct.timespec, %struct.timespec, %struct.timespec, [3 x i64] }
%struct.timespec = type { i64, i64 }
%struct.anon.7 = type { ptr, i32 }
%struct.anon.8 = type { ptr, i32 }
%struct.url_adapt_state_ex_t = type { %struct.smart_str, %struct.smart_str, %struct.smart_str, %struct.smart_str, %struct.smart_str, %struct.smart_str, %struct.smart_str, i32, ptr, i32, i32, %struct.smart_str, i32, i32, ptr }
%struct.smart_str = type { ptr, i64 }
%struct._zend_array = type { %struct._zend_refcounted_h, %union.anon.0, i32, %union.anon.1, i32, i32, i32, i32, i64, ptr }
%struct._zend_refcounted_h = type { i32, %union.anon }
%union.anon = type { i32 }
%union.anon.0 = type { i32 }
%union.anon.1 = type { ptr }

@basic_globals = global %struct._php_basic_globals zeroinitializer, align 8

; Function Attrs: nounwind uwtable
define zeroext i1 @append_user_shutdown_function(ptr noundef %0) #0 {
  %2 = alloca i32, align 4
  %3 = alloca ptr, align 8
  %4 = alloca ptr, align 8
  %5 = alloca ptr, align 8
  %6 = alloca i64, align 8
  %7 = alloca %struct._zval_struct, align 8
  %8 = alloca ptr, align 8
  %9 = alloca ptr, align 8
  store ptr %0, ptr %9, align 8
  %10 = load ptr, ptr @basic_globals, align 8
  %11 = icmp ne ptr %10, null
  br i1 %11, label %15, label %12

12:                                               ; preds = %1
  %13 = call noalias ptr @_emalloc_56()
  store ptr %13, ptr @basic_globals, align 8
  %14 = load ptr, ptr @basic_globals, align 8
  call void @_zend_hash_init(ptr noundef %14, i32 noundef 0, ptr noundef @user_shutdown_function_dtor, i1 noundef zeroext false)
  br label %15

15:                                               ; preds = %12, %1
  %16 = load ptr, ptr @basic_globals, align 8
  %17 = load ptr, ptr %9, align 8
  store ptr %16, ptr %4, align 8
  store ptr %17, ptr %5, align 8
  store i64 104, ptr %6, align 8
  store ptr null, ptr %7, align 8
  %18 = getelementptr inbounds %struct._zval_struct, ptr %7, i32 0, i32 1
  store i32 13, ptr %18, align 8
  %19 = load ptr, ptr %4, align 8
  %20 = call ptr @zend_hash_next_index_insert(ptr noundef %19, ptr noundef %7) #12
  store ptr %20, ptr %8, align 8
  %21 = icmp ne ptr %20, null
  br i1 %21, label %22, label %271

22:                                               ; preds = %15
  %23 = load ptr, ptr %4, align 8
  %24 = getelementptr inbounds %struct._zend_refcounted_h, ptr %23, i32 0, i32 1
  %25 = load i32, ptr %24, align 4
  store i32 %25, ptr %2, align 4
  %26 = load i32, ptr %2, align 4
  %27 = and i32 %26, 1008
  %28 = and i32 %27, 128
  %29 = icmp ne i32 %28, 0
  br i1 %29, label %30, label %33

30:                                               ; preds = %22
  %31 = load i64, ptr %6, align 8
  %32 = call noalias ptr @__zend_malloc(i64 noundef %31) #14
  br label %262

33:                                               ; preds = %22
  %34 = load i64, ptr %6, align 8
  %35 = call i1 @llvm.is.constant.i64(i64 %34)
  br i1 %35, label %36, label %257

36:                                               ; preds = %33
  %37 = load i64, ptr %6, align 8
  %38 = icmp ule i64 %37, 8
  br i1 %38, label %39, label %41

39:                                               ; preds = %36
  %40 = call noalias ptr @_emalloc_8() #12
  br label %255

41:                                               ; preds = %36
  %42 = load i64, ptr %6, align 8
  %43 = icmp ule i64 %42, 16
  br i1 %43, label %44, label %46

44:                                               ; preds = %41
  %45 = call noalias ptr @_emalloc_16() #12
  br label %253

46:                                               ; preds = %41
  %47 = load i64, ptr %6, align 8
  %48 = icmp ule i64 %47, 24
  br i1 %48, label %49, label %51

49:                                               ; preds = %46
  %50 = call noalias ptr @_emalloc_24() #12
  br label %251

51:                                               ; preds = %46
  %52 = load i64, ptr %6, align 8
  %53 = icmp ule i64 %52, 32
  br i1 %53, label %54, label %56

54:                                               ; preds = %51
  %55 = call noalias ptr @_emalloc_32() #12
  br label %249

56:                                               ; preds = %51
  %57 = load i64, ptr %6, align 8
  %58 = icmp ule i64 %57, 40
  br i1 %58, label %59, label %61

59:                                               ; preds = %56
  %60 = call noalias ptr @_emalloc_40() #12
  br label %247

61:                                               ; preds = %56
  %62 = load i64, ptr %6, align 8
  %63 = icmp ule i64 %62, 48
  br i1 %63, label %64, label %66

64:                                               ; preds = %61
  %65 = call noalias ptr @_emalloc_48() #12
  br label %245

66:                                               ; preds = %61
  %67 = load i64, ptr %6, align 8
  %68 = icmp ule i64 %67, 56
  br i1 %68, label %69, label %71

69:                                               ; preds = %66
  %70 = call noalias ptr @_emalloc_56() #12
  br label %243

71:                                               ; preds = %66
  %72 = load i64, ptr %6, align 8
  %73 = icmp ule i64 %72, 64
  br i1 %73, label %74, label %76

74:                                               ; preds = %71
  %75 = call noalias ptr @_emalloc_64() #12
  br label %241

76:                                               ; preds = %71
  %77 = load i64, ptr %6, align 8
  %78 = icmp ule i64 %77, 80
  br i1 %78, label %79, label %81

79:                                               ; preds = %76
  %80 = call noalias ptr @_emalloc_80() #12
  br label %239

81:                                               ; preds = %76
  %82 = load i64, ptr %6, align 8
  %83 = icmp ule i64 %82, 96
  br i1 %83, label %84, label %86

84:                                               ; preds = %81
  %85 = call noalias ptr @_emalloc_96() #12
  br label %237

86:                                               ; preds = %81
  %87 = load i64, ptr %6, align 8
  %88 = icmp ule i64 %87, 112
  br i1 %88, label %89, label %91

89:                                               ; preds = %86
  %90 = call noalias ptr @_emalloc_112() #12
  br label %235

91:                                               ; preds = %86
  %92 = load i64, ptr %6, align 8
  %93 = icmp ule i64 %92, 128
  br i1 %93, label %94, label %96

94:                                               ; preds = %91
  %95 = call noalias ptr @_emalloc_128() #12
  br label %233

96:                                               ; preds = %91
  %97 = load i64, ptr %6, align 8
  %98 = icmp ule i64 %97, 160
  br i1 %98, label %99, label %101

99:                                               ; preds = %96
  %100 = call noalias ptr @_emalloc_160() #12
  br label %231

101:                                              ; preds = %96
  %102 = load i64, ptr %6, align 8
  %103 = icmp ule i64 %102, 192
  br i1 %103, label %104, label %106

104:                                              ; preds = %101
  %105 = call noalias ptr @_emalloc_192() #12
  br label %229

106:                                              ; preds = %101
  %107 = load i64, ptr %6, align 8
  %108 = icmp ule i64 %107, 224
  br i1 %108, label %109, label %111

109:                                              ; preds = %106
  %110 = call noalias ptr @_emalloc_224() #12
  br label %227

111:                                              ; preds = %106
  %112 = load i64, ptr %6, align 8
  %113 = icmp ule i64 %112, 256
  br i1 %113, label %114, label %116

114:                                              ; preds = %111
  %115 = call noalias ptr @_emalloc_256() #12
  br label %225

116:                                              ; preds = %111
  %117 = load i64, ptr %6, align 8
  %118 = icmp ule i64 %117, 320
  br i1 %118, label %119, label %121

119:                                              ; preds = %116
  %120 = call noalias ptr @_emalloc_320() #12
  br label %223

121:                                              ; preds = %116
  %122 = load i64, ptr %6, align 8
  %123 = icmp ule i64 %122, 384
  br i1 %123, label %124, label %126

124:                                              ; preds = %121
  %125 = call noalias ptr @_emalloc_384() #12
  br label %221

126:                                              ; preds = %121
  %127 = load i64, ptr %6, align 8
  %128 = icmp ule i64 %127, 448
  br i1 %128, label %129, label %131

129:                                              ; preds = %126
  %130 = call noalias ptr @_emalloc_448() #12
  br label %219

131:                                              ; preds = %126
  %132 = load i64, ptr %6, align 8
  %133 = icmp ule i64 %132, 512
  br i1 %133, label %134, label %136

134:                                              ; preds = %131
  %135 = call noalias ptr @_emalloc_512() #12
  br label %217

136:                                              ; preds = %131
  %137 = load i64, ptr %6, align 8
  %138 = icmp ule i64 %137, 640
  br i1 %138, label %139, label %141

139:                                              ; preds = %136
  %140 = call noalias ptr @_emalloc_640() #12
  br label %215

141:                                              ; preds = %136
  %142 = load i64, ptr %6, align 8
  %143 = icmp ule i64 %142, 768
  br i1 %143, label %144, label %146

144:                                              ; preds = %141
  %145 = call noalias ptr @_emalloc_768() #12
  br label %213

146:                                              ; preds = %141
  %147 = load i64, ptr %6, align 8
  %148 = icmp ule i64 %147, 896
  br i1 %148, label %149, label %151

149:                                              ; preds = %146
  %150 = call noalias ptr @_emalloc_896() #12
  br label %211

151:                                              ; preds = %146
  %152 = load i64, ptr %6, align 8
  %153 = icmp ule i64 %152, 1024
  br i1 %153, label %154, label %156

154:                                              ; preds = %151
  %155 = call noalias ptr @_emalloc_1024() #12
  br label %209

156:                                              ; preds = %151
  %157 = load i64, ptr %6, align 8
  %158 = icmp ule i64 %157, 1280
  br i1 %158, label %159, label %161

159:                                              ; preds = %156
  %160 = call noalias ptr @_emalloc_1280() #12
  br label %207

161:                                              ; preds = %156
  %162 = load i64, ptr %6, align 8
  %163 = icmp ule i64 %162, 1536
  br i1 %163, label %164, label %166

164:                                              ; preds = %161
  %165 = call noalias ptr @_emalloc_1536() #12
  br label %205

166:                                              ; preds = %161
  %167 = load i64, ptr %6, align 8
  %168 = icmp ule i64 %167, 1792
  br i1 %168, label %169, label %171

169:                                              ; preds = %166
  %170 = call noalias ptr @_emalloc_1792() #12
  br label %203

171:                                              ; preds = %166
  %172 = load i64, ptr %6, align 8
  %173 = icmp ule i64 %172, 2048
  br i1 %173, label %174, label %176

174:                                              ; preds = %171
  %175 = call noalias ptr @_emalloc_2048() #12
  br label %201

176:                                              ; preds = %171
  %177 = load i64, ptr %6, align 8
  %178 = icmp ule i64 %177, 2560
  br i1 %178, label %179, label %181

179:                                              ; preds = %176
  %180 = call noalias ptr @_emalloc_2560() #12
  br label %199

181:                                              ; preds = %176
  %182 = load i64, ptr %6, align 8
  %183 = icmp ule i64 %182, 3072
  br i1 %183, label %184, label %186

184:                                              ; preds = %181
  %185 = call noalias ptr @_emalloc_3072() #12
  br label %197

186:                                              ; preds = %181
  %187 = load i64, ptr %6, align 8
  %188 = icmp ule i64 %187, 2093056
  br i1 %188, label %189, label %192

189:                                              ; preds = %186
  %190 = load i64, ptr %6, align 8
  %191 = call noalias ptr @_emalloc_large(i64 noundef %190) #14
  br label %195

192:                                              ; preds = %186
  %193 = load i64, ptr %6, align 8
  %194 = call noalias ptr @_emalloc_huge(i64 noundef %193) #14
  br label %195

195:                                              ; preds = %192, %189
  %196 = phi ptr [ %191, %189 ], [ %194, %192 ]
  br label %197

197:                                              ; preds = %195, %184
  %198 = phi ptr [ %185, %184 ], [ %196, %195 ]
  br label %199

199:                                              ; preds = %197, %179
  %200 = phi ptr [ %180, %179 ], [ %198, %197 ]
  br label %201

201:                                              ; preds = %199, %174
  %202 = phi ptr [ %175, %174 ], [ %200, %199 ]
  br label %203

203:                                              ; preds = %201, %169
  %204 = phi ptr [ %170, %169 ], [ %202, %201 ]
  br label %205

205:                                              ; preds = %203, %164
  %206 = phi ptr [ %165, %164 ], [ %204, %203 ]
  br label %207

207:                                              ; preds = %205, %159
  %208 = phi ptr [ %160, %159 ], [ %206, %205 ]
  br label %209

209:                                              ; preds = %207, %154
  %210 = phi ptr [ %155, %154 ], [ %208, %207 ]
  br label %211

211:                                              ; preds = %209, %149
  %212 = phi ptr [ %150, %149 ], [ %210, %209 ]
  br label %213

213:                                              ; preds = %211, %144
  %214 = phi ptr [ %145, %144 ], [ %212, %211 ]
  br label %215

215:                                              ; preds = %213, %139
  %216 = phi ptr [ %140, %139 ], [ %214, %213 ]
  br label %217

217:                                              ; preds = %215, %134
  %218 = phi ptr [ %135, %134 ], [ %216, %215 ]
  br label %219

219:                                              ; preds = %217, %129
  %220 = phi ptr [ %130, %129 ], [ %218, %217 ]
  br label %221

221:                                              ; preds = %219, %124
  %222 = phi ptr [ %125, %124 ], [ %220, %219 ]
  br label %223

223:                                              ; preds = %221, %119
  %224 = phi ptr [ %120, %119 ], [ %222, %221 ]
  br label %225

225:                                              ; preds = %223, %114
  %226 = phi ptr [ %115, %114 ], [ %224, %223 ]
  br label %227

227:                                              ; preds = %225, %109
  %228 = phi ptr [ %110, %109 ], [ %226, %225 ]
  br label %229

229:                                              ; preds = %227, %104
  %230 = phi ptr [ %105, %104 ], [ %228, %227 ]
  br label %231

231:                                              ; preds = %229, %99
  %232 = phi ptr [ %100, %99 ], [ %230, %229 ]
  br label %233

233:                                              ; preds = %231, %94
  %234 = phi ptr [ %95, %94 ], [ %232, %231 ]
  br label %235

235:                                              ; preds = %233, %89
  %236 = phi ptr [ %90, %89 ], [ %234, %233 ]
  br label %237

237:                                              ; preds = %235, %84
  %238 = phi ptr [ %85, %84 ], [ %236, %235 ]
  br label %239

239:                                              ; preds = %237, %79
  %240 = phi ptr [ %80, %79 ], [ %238, %237 ]
  br label %241

241:                                              ; preds = %239, %74
  %242 = phi ptr [ %75, %74 ], [ %240, %239 ]
  br label %243

243:                                              ; preds = %241, %69
  %244 = phi ptr [ %70, %69 ], [ %242, %241 ]
  br label %245

245:                                              ; preds = %243, %64
  %246 = phi ptr [ %65, %64 ], [ %244, %243 ]
  br label %247

247:                                              ; preds = %245, %59
  %248 = phi ptr [ %60, %59 ], [ %246, %245 ]
  br label %249

249:                                              ; preds = %247, %54
  %250 = phi ptr [ %55, %54 ], [ %248, %247 ]
  br label %251

251:                                              ; preds = %249, %49
  %252 = phi ptr [ %50, %49 ], [ %250, %249 ]
  br label %253

253:                                              ; preds = %251, %44
  %254 = phi ptr [ %45, %44 ], [ %252, %251 ]
  br label %255

255:                                              ; preds = %253, %39
  %256 = phi ptr [ %40, %39 ], [ %254, %253 ]
  br label %260

257:                                              ; preds = %33
  %258 = load i64, ptr %6, align 8
  %259 = call noalias ptr @_emalloc(i64 noundef %258) #14
  br label %260

260:                                              ; preds = %257, %255
  %261 = phi ptr [ %256, %255 ], [ %259, %257 ]
  br label %262

262:                                              ; preds = %260, %30
  %263 = phi ptr [ %32, %30 ], [ %261, %260 ]
  %264 = load ptr, ptr %8, align 8
  store ptr %263, ptr %264, align 8
  %265 = load ptr, ptr %8, align 8
  %266 = load ptr, ptr %265, align 8
  %267 = load ptr, ptr %5, align 8
  %268 = load i64, ptr %6, align 8
  call void @llvm.memcpy.p0.p0.i64(ptr align 1 %266, ptr align 1 %267, i64 %268, i1 false)
  %269 = load ptr, ptr %8, align 8
  %270 = load ptr, ptr %269, align 8
  store ptr %270, ptr %3, align 8
  br label %272

271:                                              ; preds = %15
  store ptr null, ptr %3, align 8
  br label %272

272:                                              ; preds = %271, %262
  %273 = load ptr, ptr %3, align 8
  %274 = icmp ne ptr %273, null
  ret i1 %274
}