; Function Attrs: nounwind uwtable
define noundef zeroext i1 @append_user_shutdown_function(ptr nocapture noundef readonly %0) local_unnamed_addr #0 {
  %2 = alloca %struct._zval_struct, align 8
  %3 = load ptr, ptr @basic_globals, align 8
  %.not = icmp eq ptr %3, null
  br i1 %.not, label %4, label %6

4:                                                ; preds = %1
  %5 = tail call noalias ptr @_emalloc_56() #18
  store ptr %5, ptr @basic_globals, align 8
  tail call void @_zend_hash_init(ptr noundef %5, i32 noundef 0, ptr noundef nonnull @user_shutdown_function_dtor, i1 noundef zeroext false) #18
  %.pre = load ptr, ptr @basic_globals, align 8
  br label %6

6:                                                ; preds = %4, %1
  %7 = phi ptr [ %.pre, %4 ], [ %3, %1 ]
  store ptr null, ptr %2, align 8
  %8 = getelementptr inbounds i8, ptr %2, i64 8
  store i32 13, ptr %8, align 8
  %9 = call ptr @zend_hash_next_index_insert(ptr noundef %7, ptr noundef nonnull %2) #18
  %.not46 = icmp eq ptr %9, null
  br i1 %.not46, label %21, label %10

10:                                               ; preds = %6
  %11 = getelementptr inbounds i8, ptr %7, i64 4
  %12 = load i32, ptr %11, align 4
  %13 = and i32 %12, 128
  %.not47 = icmp eq i32 %13, 0
  br i1 %.not47, label %16, label %14

14:                                               ; preds = %10
  %15 = call noalias dereferenceable_or_null(104) ptr @__zend_malloc(i64 noundef 104) #20
  br label %18

16:                                               ; preds = %10
  %17 = call noalias ptr @_emalloc_112() #18
  br label %18

18:                                               ; preds = %16, %14
  %19 = phi ptr [ %15, %14 ], [ %17, %16 ]
  store ptr %19, ptr %9, align 8
  call void @llvm.memcpy.p0.p0.i64(ptr noundef nonnull align 1 dereferenceable(104) %19, ptr noundef nonnull align 1 dereferenceable(104) %0, i64 104, i1 false)
  %20 = icmp ne ptr %19, null
  br label %21

21:                                               ; preds = %6, %18
  %.0 = phi i1 [ %20, %18 ], [ false, %6 ]
  ret i1 %.0
}